target datalayout = "e-m:e-p270:32:32-p271:32:32-p272:64:64-i64:64-i128:128-f80:128-n8:16:32:64-S128"
target triple = "x86_64-pc-linux-gnu"

%struct.H5O_token_t = type { [16 x i8] }
%struct.trav_table_t = type { i64, i64, i64, ptr }
%struct.trav_obj_t = type { %struct.H5O_token_t, [2 x i32], i8, ptr, i32, ptr, i64, i64 }

@H5_libinit_g = external global i8, align 1
@H5_libterm_g = external global i8, align 1
@H5O_TOKEN_UNDEF_g = external constant %struct.H5O_token_t, align 1

; Function Attrs: nounwind uwtable
define void @trav_table_addflags(ptr noundef %0, ptr noundef %1, i32 noundef %2, ptr noundef %3) #0 {
  %5 = alloca ptr, align 8
  %6 = alloca ptr, align 8
  %7 = alloca i32, align 4
  %8 = alloca ptr, align 8
  %9 = alloca i64, align 8
  store ptr %0, ptr %5, align 8, !tbaa !92
  store ptr %1, ptr %6, align 8, !tbaa !10
  store i32 %2, ptr %7, align 4, !tbaa !3
  store ptr %3, ptr %8, align 8, !tbaa !77
  call void @llvm.lifetime.start.p0(i64 8, ptr %9) #10
  %10 = load ptr, ptr %8, align 8, !tbaa !77
  %11 = icmp ne ptr %10, null
  br i1 %11, label %12, label %134

12:                                               ; preds = %4
  %13 = load ptr, ptr %8, align 8, !tbaa !77
  %14 = getelementptr inbounds nuw %struct.trav_table_t, ptr %13, i32 0, i32 2
  %15 = load i64, ptr %14, align 8, !tbaa !79
  %16 = load ptr, ptr %8, align 8, !tbaa !77
  %17 = getelementptr inbounds nuw %struct.trav_table_t, ptr %16, i32 0, i32 1
  %18 = load i64, ptr %17, align 8, !tbaa !94
  %19 = icmp eq i64 %15, %18
  br i1 %19, label %20, label %46

20:                                               ; preds = %12
  %21 = load ptr, ptr %8, align 8, !tbaa !77
  %22 = getelementptr inbounds nuw %struct.trav_table_t, ptr %21, i32 0, i32 1
  %23 = load i64, ptr %22, align 8, !tbaa !94
  %24 = mul i64 %23, 2
  %25 = icmp ugt i64 1, %24
  br i1 %25, label %26, label %27

26:                                               ; preds = %20
  br label %32

27:                                               ; preds = %20
  %28 = load ptr, ptr %8, align 8, !tbaa !77
  %29 = getelementptr inbounds nuw %struct.trav_table_t, ptr %28, i32 0, i32 1
  %30 = load i64, ptr %29, align 8, !tbaa !94
  %31 = mul i64 %30, 2
  br label %32

32:                                               ; preds = %27, %26
  %33 = phi i64 [ 1, %26 ], [ %31, %27 ]
  %34 = load ptr, ptr %8, align 8, !tbaa !77
  %35 = getelementptr inbounds nuw %struct.trav_table_t, ptr %34, i32 0, i32 1
  store i64 %33, ptr %35, align 8, !tbaa !94
  %36 = load ptr, ptr %8, align 8, !tbaa !77
  %37 = getelementptr inbounds nuw %struct.trav_table_t, ptr %36, i32 0, i32 3
  %38 = load ptr, ptr %37, align 8, !tbaa !82
  %39 = load ptr, ptr %8, align 8, !tbaa !77
  %40 = getelementptr inbounds nuw %struct.trav_table_t, ptr %39, i32 0, i32 1
  %41 = load i64, ptr %40, align 8, !tbaa !94
  %42 = mul i64 %41, 72
  %43 = call ptr @realloc(ptr noundef %38, i64 noundef %42) #11
  %44 = load ptr, ptr %8, align 8, !tbaa !77
  %45 = getelementptr inbounds nuw %struct.trav_table_t, ptr %44, i32 0, i32 3
  store ptr %43, ptr %45, align 8, !tbaa !82
  br label %46

46:                                               ; preds = %32, %12
  %47 = load ptr, ptr %8, align 8, !tbaa !77
  %48 = getelementptr inbounds nuw %struct.trav_table_t, ptr %47, i32 0, i32 2
  %49 = load i64, ptr %48, align 8, !tbaa !79
  %50 = add i64 %49, 1
  store i64 %50, ptr %48, align 8, !tbaa !79
  store i64 %49, ptr %9, align 8, !tbaa !21
  %51 = load ptr, ptr %8, align 8, !tbaa !77
  %52 = getelementptr inbounds nuw %struct.trav_table_t, ptr %51, i32 0, i32 3
  %53 = load ptr, ptr %52, align 8, !tbaa !82
  %54 = load i64, ptr %9, align 8, !tbaa !21
  %55 = getelementptr inbounds nuw %struct.trav_obj_t, ptr %53, i64 %54
  %56 = getelementptr inbounds nuw %struct.trav_obj_t, ptr %55, i32 0, i32 0
  %57 = load i8, ptr @H5_libinit_g, align 1, !tbaa !27, !range !28, !noundef !29
  %58 = trunc i8 %57 to i1
  br i1 %58, label %63, label %59

59:                                               ; preds = %46
  %60 = load i8, ptr @H5_libterm_g, align 1, !tbaa !27, !range !28, !noundef !29
  %61 = trunc i8 %60 to i1
  %62 = xor i1 %61, true
  br label %63

63:                                               ; preds = %59, %46
  %64 = phi i1 [ false, %46 ], [ %62, %59 ]
  %65 = xor i1 %64, true
  %66 = xor i1 %65, true
  %67 = zext i1 %66 to i32
  %68 = sext i32 %67 to i64
  %69 = call i64 @llvm.expect.i64(i64 %68, i64 0)
  %70 = icmp ne i64 %69, 0
  br i1 %70, label %71, label %73

71:                                               ; preds = %63
  %72 = call i32 @H5open()
  br label %74

73:                                               ; preds = %63
  br label %74

74:                                               ; preds = %73, %71
  call void @llvm.memcpy.p0.p0.i64(ptr align 8 %56, ptr align 1 @H5O_TOKEN_UNDEF_g, i64 16, i1 false), !tbaa.struct !30
  %75 = load ptr, ptr %5, align 8, !tbaa !92
  %76 = getelementptr inbounds i32, ptr %75, i64 0
  %77 = load i32, ptr %76, align 4, !tbaa !3
  %78 = load ptr, ptr %8, align 8, !tbaa !77
  %79 = getelementptr inbounds nuw %struct.trav_table_t, ptr %78, i32 0, i32 3
  %80 = load ptr, ptr %79, align 8, !tbaa !82
  %81 = load i64, ptr %9, align 8, !tbaa !21
  %82 = getelementptr inbounds nuw %struct.trav_obj_t, ptr %80, i64 %81
  %83 = getelementptr inbounds nuw %struct.trav_obj_t, ptr %82, i32 0, i32 1
  %84 = getelementptr inbounds [2 x i32], ptr %83, i64 0, i64 0
  store i32 %77, ptr %84, align 8, !tbaa !3
  %85 = load ptr, ptr %5, align 8, !tbaa !92
  %86 = getelementptr inbounds i32, ptr %85, i64 1
  %87 = load i32, ptr %86, align 4, !tbaa !3
  %88 = load ptr, ptr %8, align 8, !tbaa !77
  %89 = getelementptr inbounds nuw %struct.trav_table_t, ptr %88, i32 0, i32 3
  %90 = load ptr, ptr %89, align 8, !tbaa !82
  %91 = load i64, ptr %9, align 8, !tbaa !21
  %92 = getelementptr inbounds nuw %struct.trav_obj_t, ptr %90, i64 %91
  %93 = getelementptr inbounds nuw %struct.trav_obj_t, ptr %92, i32 0, i32 1
  %94 = getelementptr inbounds [2 x i32], ptr %93, i64 0, i64 1
  store i32 %87, ptr %94, align 4, !tbaa !3
  %95 = load ptr, ptr %8, align 8, !tbaa !77
  %96 = getelementptr inbounds nuw %struct.trav_table_t, ptr %95, i32 0, i32 3
  %97 = load ptr, ptr %96, align 8, !tbaa !82
  %98 = load i64, ptr %9, align 8, !tbaa !21
  %99 = getelementptr inbounds nuw %struct.trav_obj_t, ptr %97, i64 %98
  %100 = getelementptr inbounds nuw %struct.trav_obj_t, ptr %99, i32 0, i32 2
  store i8 0, ptr %100, align 8, !tbaa !95
  %101 = load ptr, ptr %6, align 8, !tbaa !10
  %102 = call noalias ptr @strdup(ptr noundef %101) #10
  %103 = load ptr, ptr %8, align 8, !tbaa !77
  %104 = getelementptr inbounds nuw %struct.trav_table_t, ptr %103, i32 0, i32 3
  %105 = load ptr, ptr %104, align 8, !tbaa !82
  %106 = load i64, ptr %9, align 8, !tbaa !21
  %107 = getelementptr inbounds nuw %struct.trav_obj_t, ptr %105, i64 %106
  %108 = getelementptr inbounds nuw %struct.trav_obj_t, ptr %107, i32 0, i32 3
  store ptr %102, ptr %108, align 8, !tbaa !83
  %109 = load i32, ptr %7, align 4, !tbaa !3
  %110 = load ptr, ptr %8, align 8, !tbaa !77
  %111 = getelementptr inbounds nuw %struct.trav_table_t, ptr %110, i32 0, i32 3
  %112 = load ptr, ptr %111, align 8, !tbaa !82
  %113 = load i64, ptr %9, align 8, !tbaa !21
  %114 = getelementptr inbounds nuw %struct.trav_obj_t, ptr %112, i64 %113
  %115 = getelementptr inbounds nuw %struct.trav_obj_t, ptr %114, i32 0, i32 4
  store i32 %109, ptr %115, align 8, !tbaa !96
  %116 = load ptr, ptr %8, align 8, !tbaa !77
  %117 = getelementptr inbounds nuw %struct.trav_table_t, ptr %116, i32 0, i32 3
  %118 = load ptr, ptr %117, align 8, !tbaa !82
  %119 = load i64, ptr %9, align 8, !tbaa !21
  %120 = getelementptr inbounds nuw %struct.trav_obj_t, ptr %118, i64 %119
  %121 = getelementptr inbounds nuw %struct.trav_obj_t, ptr %120, i32 0, i32 7
  store i64 0, ptr %121, align 8, !tbaa !86
  %122 = load ptr, ptr %8, align 8, !tbaa !77
  %123 = getelementptr inbounds nuw %struct.trav_table_t, ptr %122, i32 0, i32 3
  %124 = load ptr, ptr %123, align 8, !tbaa !82
  %125 = load i64, ptr %9, align 8, !tbaa !21
  %126 = getelementptr inbounds nuw %struct.trav_obj_t, ptr %124, i64 %125
  %127 = getelementptr inbounds nuw %struct.trav_obj_t, ptr %126, i32 0, i32 6
  store i64 0, ptr %127, align 8, !tbaa !97
  %128 = load ptr, ptr %8, align 8, !tbaa !77
  %129 = getelementptr inbounds nuw %struct.trav_table_t, ptr %128, i32 0, i32 3
  %130 = load ptr, ptr %129, align 8, !tbaa !82
  %131 = load i64, ptr %9, align 8, !tbaa !21
  %132 = getelementptr inbounds nuw %struct.trav_obj_t, ptr %130, i64 %131
  %133 = getelementptr inbounds nuw %struct.trav_obj_t, ptr %132, i32 0, i32 5
  store ptr null, ptr %133, align 8, !tbaa !87
  br label %134

134:                                              ; preds = %74, %4
  call void @llvm.lifetime.end.p0(i64 8, ptr %9) #10
  ret void
}