; Function Attrs: nounwind uwtable
define void @trav_table_addflags(ptr noundef readonly captures(none) %0, ptr noundef readonly captures(none) %1, i32 noundef %2, ptr noundef captures(address_is_null) %3) local_unnamed_addr #1 {
  %.not = icmp eq ptr %3, null
  br i1 %.not, label %42, label %5

5:                                                ; preds = %4
  %6 = getelementptr inbounds nuw i8, ptr %3, i64 16
  %7 = load i64, ptr %6, align 8, !tbaa !70
  %8 = getelementptr inbounds nuw i8, ptr %3, i64 8
  %9 = load i64, ptr %8, align 8, !tbaa !73
  %10 = icmp eq i64 %7, %9
  br i1 %10, label %11, label %._crit_edge

._crit_edge:                                      ; preds = %5
  %.phi.trans.insert = getelementptr inbounds nuw i8, ptr %3, i64 24
  %.pre33 = load ptr, ptr %.phi.trans.insert, align 8, !tbaa !74
  br label %17

11:                                               ; preds = %5
  %12 = shl i64 %7, 1
  %spec.select = tail call i64 @llvm.umax.i64(i64 %12, i64 1)
  store i64 %spec.select, ptr %8, align 8, !tbaa !73
  %13 = getelementptr inbounds nuw i8, ptr %3, i64 24
  %14 = load ptr, ptr %13, align 8, !tbaa !74
  %15 = mul i64 %spec.select, 72
  %16 = tail call ptr @realloc(ptr noundef %14, i64 noundef %15) #17
  store ptr %16, ptr %13, align 8, !tbaa !74
  %.pre = load i64, ptr %6, align 8, !tbaa !70
  br label %17

17:                                               ; preds = %._crit_edge, %11
  %18 = phi ptr [ %16, %11 ], [ %.pre33, %._crit_edge ]
  %19 = phi i64 [ %.pre, %11 ], [ %7, %._crit_edge ]
  %20 = add i64 %19, 1
  store i64 %20, ptr %6, align 8, !tbaa !70
  %21 = getelementptr inbounds nuw i8, ptr %3, i64 24
  %22 = getelementptr inbounds nuw %struct.trav_obj_t, ptr %18, i64 %19
  %23 = load i8, ptr @H5_libinit_g, align 1, !tbaa !23, !range !24, !noundef !25
  %24 = trunc nuw i8 %23 to i1
  %25 = load i8, ptr @H5_libterm_g, align 1, !range !24
  %26 = trunc nuw i8 %25 to i1
  %27 = select i1 %24, i1 true, i1 %26
  br i1 %27, label %30, label %28, !prof !26

28:                                               ; preds = %17
  %29 = tail call i32 @H5open() #18
  br label %30

30:                                               ; preds = %17, %28
  tail call void @llvm.memcpy.p0.p0.i64(ptr noundef nonnull align 8 dereferenceable(16) %22, ptr noundef nonnull align 1 dereferenceable(16) @H5O_TOKEN_UNDEF_g, i64 16, i1 false), !tbaa.struct !27
  %31 = load i32, ptr %0, align 4, !tbaa !3
  %32 = load ptr, ptr %21, align 8, !tbaa !74
  %33 = getelementptr inbounds nuw %struct.trav_obj_t, ptr %32, i64 %19, i32 1
  store i32 %31, ptr %33, align 8, !tbaa !3
  %34 = getelementptr inbounds nuw i8, ptr %0, i64 4
  %35 = load i32, ptr %34, align 4, !tbaa !3
  %36 = getelementptr inbounds nuw %struct.trav_obj_t, ptr %32, i64 %19, i32 1, i64 1
  store i32 %35, ptr %36, align 4, !tbaa !3
  %37 = getelementptr inbounds nuw %struct.trav_obj_t, ptr %32, i64 %19, i32 2
  store i8 0, ptr %37, align 8, !tbaa !88
  %38 = tail call noalias ptr @strdup(ptr noundef %1) #18
  %39 = getelementptr inbounds nuw %struct.trav_obj_t, ptr %32, i64 %19, i32 3
  store ptr %38, ptr %39, align 8, !tbaa !75
  %40 = getelementptr inbounds nuw %struct.trav_obj_t, ptr %32, i64 %19, i32 4
  store i32 %2, ptr %40, align 8, !tbaa !78
  %41 = getelementptr inbounds nuw %struct.trav_obj_t, ptr %32, i64 %19, i32 5
  tail call void @llvm.memset.p0.i64(ptr noundef nonnull align 8 dereferenceable(24) %41, i8 0, i64 24, i1 false)
  br label %42

42:                                               ; preds = %30, %4
  ret void
}